; ModuleID = '43/1598.c'
source_filename = "43/1598.c"
target datalayout = "e-m:e-p270:32:32-p271:32:32-p272:64:64-i64:64-f80:128-n8:16:32:64-S128"
target triple = "x86_64-pc-linux-gnu"

@.str = private unnamed_addr constant [3 x i8] c"%d\00", align 1
@.str.1 = private unnamed_addr constant [8 x i8] c"%d %d\0A\0A\00", align 1

; Function Attrs: noinline nounwind uwtable
define dso_local i32 @pd(i32 %0) #0 {
  %2 = alloca i32, align 4
  %3 = alloca i32, align 4
  %4 = alloca i32, align 4
  store i32 %0, i32* %2, align 4
  store i32 0, i32* %3, align 4
  %5 = load i32, i32* %2, align 4
  %6 = srem i32 %5, 2
  %7 = icmp ne i32 %6, 0
  br i1 %7, label %8, label %35

8:                                                ; preds = %1
  store i32 3, i32* %4, align 4
  br label %9

9:                                                ; preds = %23, %8
  %10 = load i32, i32* %4, align 4
  %11 = sitofp i32 %10 to double
  %12 = load i32, i32* %2, align 4
  %13 = sitofp i32 %12 to double
  %14 = call double @sqrt(double %13) #3
  %15 = fcmp ole double %11, %14
  br i1 %15, label %16, label %26

16:                                               ; preds = %9
  %17 = load i32, i32* %2, align 4
  %18 = load i32, i32* %4, align 4
  %19 = srem i32 %17, %18
  %20 = icmp eq i32 %19, 0
  br i1 %20, label %21, label %22

21:                                               ; preds = %16
  br label %26

22:                                               ; preds = %16
  br label %23

23:                                               ; preds = %22
  %24 = load i32, i32* %4, align 4
  %25 = add nsw i32 %24, 2
  store i32 %25, i32* %4, align 4
  br label %9

26:                                               ; preds = %21, %9
  %27 = load i32, i32* %4, align 4
  %28 = sitofp i32 %27 to double
  %29 = load i32, i32* %2, align 4
  %30 = sitofp i32 %29 to double
  %31 = call double @sqrt(double %30) #3
  %32 = fcmp ogt double %28, %31
  br i1 %32, label %33, label %34

33:                                               ; preds = %26
  store i32 1, i32* %3, align 4
  br label %34

34:                                               ; preds = %33, %26
  br label %35

35:                                               ; preds = %34, %1
  %36 = load i32, i32* %3, align 4
  ret i32 %36
}

; Function Attrs: nounwind
declare dso_local double @sqrt(double) #1

; Function Attrs: noinline nounwind uwtable
define dso_local i32 @main() #0 {
  %1 = alloca i32, align 4
  %2 = alloca i32, align 4
  %3 = alloca i32, align 4
  store i32 0, i32* %1, align 4
  %4 = call i32 (i8*, ...) @__isoc99_scanf(i8* getelementptr inbounds ([3 x i8], [3 x i8]* @.str, i64 0, i64 0), i32* %2)
  store i32 3, i32* %3, align 4
  br label %5

5:                                                ; preds = %27, %0
  %6 = load i32, i32* %3, align 4
  %7 = load i32, i32* %2, align 4
  %8 = sdiv i32 %7, 2
  %9 = icmp sle i32 %6, %8
  br i1 %9, label %10, label %30

10:                                               ; preds = %5
  %11 = load i32, i32* %3, align 4
  %12 = call i32 @pd(i32 %11)
  %13 = icmp eq i32 %12, 1
  br i1 %13, label %14, label %26

14:                                               ; preds = %10
  %15 = load i32, i32* %2, align 4
  %16 = load i32, i32* %3, align 4
  %17 = sub nsw i32 %15, %16
  %18 = call i32 @pd(i32 %17)
  %19 = icmp eq i32 %18, 1
  br i1 %19, label %20, label %26

20:                                               ; preds = %14
  %21 = load i32, i32* %3, align 4
  %22 = load i32, i32* %2, align 4
  %23 = load i32, i32* %3, align 4
  %24 = sub nsw i32 %22, %23
  %25 = call i32 (i8*, ...) @printf(i8* getelementptr inbounds ([8 x i8], [8 x i8]* @.str.1, i64 0, i64 0), i32 %21, i32 %24)
  br label %26

26:                                               ; preds = %20, %14, %10
  br label %27

27:                                               ; preds = %26
  %28 = load i32, i32* %3, align 4
  %29 = add nsw i32 %28, 2
  store i32 %29, i32* %3, align 4
  br label %5

30:                                               ; preds = %5
  ret i32 0
}

declare dso_local i32 @__isoc99_scanf(i8*, ...) #2

declare dso_local i32 @printf(i8*, ...) #2


!llvm.module.flags = !{!0}
!llvm.ident = !{!1}

!0 = !{i32 1, !"wchar_size", i32 4}
!1 = !{!"clang version 10.0.0-4ubuntu1 "}
